(dp0
S'show_imports'
p1
I0
sS'prj_name'
p2
S'BioPARKIN'
p3
sS'docformat'
p4
S'epytext'
p5
sS'inheritance'
p6
S'grouped'
p7
sS'help'
p8
NsS'modules'
p9
(VD:/workspace/bioparkin/src/BioPARKIN.py
p10
VD:/workspace/bioparkin/src/ui_bioparkin.py
p11
VD:/workspace/bioparkin/src/backend/ast_converter.py
p12
VD:/workspace/bioparkin/src/backend/base_ast_converter_template.py
p13
VD:/workspace/bioparkin/src/backend/basebackend.py
p14
VD:/workspace/bioparkin/src/backend/exceptions.py
p15
VD:/workspace/bioparkin/src/backend/settingsandvalues.py
p16
VD:/workspace/bioparkin/src/backend_parkincpp/parkincpp_ast_converter_template.py
p17
VD:/workspace/bioparkin/src/backend_parkincpp/parkincppbackend.py
p18
VD:/workspace/bioparkin/src/basics/threadbase.py
p19
VD:/workspace/bioparkin/src/basics/helpers/enum.py
p20
VD:/workspace/bioparkin/src/basics/helpers/filehelpers.py
p21
VD:/workspace/bioparkin/src/basics/helpers/sbmlhelpers.py
p22
VD:/workspace/bioparkin/src/basics/helpers/typehelpers.py
p23
VD:/workspace/bioparkin/src/basics/logging/qtlogginghandler.py
p24
VD:/workspace/bioparkin/src/basics/logging/qtloggingview.py
p25
VD:/workspace/bioparkin/src/basics/logging/qtstatuslogginghandler.py
p26
VD:/workspace/bioparkin/src/contrib/mod2sbml.py
p27
VD:/workspace/bioparkin/src/contrib/sbml2mod.py
p28
VD:/workspace/bioparkin/src/datamanagement/datahandling.py
p29
VD:/workspace/bioparkin/src/datamanagement/datamanagementcontroller.py
p30
VD:/workspace/bioparkin/src/datamanagement/dataset.py
p31
VD:/workspace/bioparkin/src/datamanagement/entitydata.py
p32
VD:/workspace/bioparkin/src/datamanagement/ui_DataManagementView.py
p33
VD:/workspace/bioparkin/src/odehandling/assignmentrulewrapper.py
p34
VD:/workspace/bioparkin/src/odehandling/compartmentwrapper.py
p35
VD:/workspace/bioparkin/src/odehandling/helpers.py
p36
VD:/workspace/bioparkin/src/odehandling/odegenerator.py
p37
VD:/workspace/bioparkin/src/odehandling/odemanager.py
p38
VD:/workspace/bioparkin/src/odehandling/odeviewer.py
p39
VD:/workspace/bioparkin/src/odehandling/odewrapper.py
p40
VD:/workspace/bioparkin/src/odehandling/parameterwrapper.py
p41
VD:/workspace/bioparkin/src/odehandling/reactionwrapper.py
p42
VD:/workspace/bioparkin/src/odehandling/specieswrapper.py
p43
VD:/workspace/bioparkin/src/odehandling/ui_ODEViewer.py
p44
VD:/workspace/bioparkin/src/parkincpp/parkin.py
p45
VD:/workspace/bioparkin/src/sbml_model/parameter_sets.py
p46
VD:/workspace/bioparkin/src/sbml_model/sbml_compartmenttablemodel.py
p47
VD:/workspace/bioparkin/src/sbml_model/sbml_entities.py
p48
VD:/workspace/bioparkin/src/sbml_model/sbml_entitytabledelegate.py
p49
VD:/workspace/bioparkin/src/sbml_model/sbml_entitytablemodel.py
p50
VD:/workspace/bioparkin/src/sbml_model/sbml_mainmodel.py
p51
VD:/workspace/bioparkin/src/sbml_model/sbml_maintreemodel.py
p52
VD:/workspace/bioparkin/src/sbml_model/sbml_reactiontablemodel.py
p53
VD:/workspace/bioparkin/src/sbml_model/sbml_speciestablemodel.py
p54
VD:/workspace/bioparkin/src/sbml_networkview/consistencydialogcontroller.py
p55
VD:/workspace/bioparkin/src/sbml_networkview/edge.py
p56
VD:/workspace/bioparkin/src/sbml_networkview/graphicsview.py
p57
VD:/workspace/bioparkin/src/sbml_networkview/hyperedgenode.py
p58
VD:/workspace/bioparkin/src/sbml_networkview/layoutthread.py
p59
VD:/workspace/bioparkin/src/sbml_networkview/networkcontroller.py
p60
VD:/workspace/bioparkin/src/sbml_networkview/networkview.py
p61
VD:/workspace/bioparkin/src/sbml_networkview/node.py
p62
VD:/workspace/bioparkin/src/sbml_networkview/ui_consistencydialog.py
p63
VD:/workspace/bioparkin/src/sbml_views/entitytableview.py
p64
VD:/workspace/bioparkin/src/sbml_views/sbmlentitywidget.py
p65
VD:/workspace/bioparkin/src/sbml_views/ui_entitytableview.py
p66
VD:/workspace/bioparkin/src/sbml_views/ui_sbmlentitywidget.py
p67
VD:/workspace/bioparkin/src/services/dataservice.py
p68
VD:/workspace/bioparkin/src/services/progressbarservice.py
p69
VD:/workspace/bioparkin/src/simulationworkbench/datasourcestablemodel.py
p70
VD:/workspace/bioparkin/src/simulationworkbench/parametersetstablemodel.py
p71
VD:/workspace/bioparkin/src/simulationworkbench/parametertablemodel.py
p72
VD:/workspace/bioparkin/src/simulationworkbench/simulationworkbenchcontroller.py
p73
VD:/workspace/bioparkin/src/simulationworkbench/speciestablemodel.py
p74
VD:/workspace/bioparkin/src/simulationworkbench/ui_simulationworkbench_v3.py
p75
VD:/workspace/bioparkin/src/simulationworkbench/widgets/abstractviewcontroller.py
p76
VD:/workspace/bioparkin/src/simulationworkbench/widgets/plotwidgetcontroller.py
p77
VD:/workspace/bioparkin/src/simulationworkbench/widgets/resultswindowcontroller.py
p78
VD:/workspace/bioparkin/src/simulationworkbench/widgets/tablewidgetcontroller.py
p79
VD:/workspace/bioparkin/src/simulationworkbench/widgets/ui_plotwidget_v1.py
p80
VD:/workspace/bioparkin/src/simulationworkbench/widgets/ui_resultswindow.py
p81
VD:/workspace/bioparkin/src/simulationworkbench/widgets/ui_tablewidget_v1.py
p82
tp83
sS'private'
p84
I1
sS'prj_url'
p85
NsS'introspect_or_parse'
p86
S'both'
p87
sS'frames'
p88
I1
sS'css'
p89
S'D:/workspace/bioparkin/doc/epydoc.css'
p90
sS'target'
p91
S'D:/workspace/bioparkin/doc/html'
p92
s.